; Function Attrs: mustprogress uwtable
define hidden void @_Z16widen_raw_stringRKNSt7__cxx1112basic_stringIcSt11char_traitsIcESaIcEEE(ptr dead_on_unwind noalias writable sret(%"class.std::__cxx11::basic_string") align 8 %0, ptr nocapture noundef nonnull readonly align 8 dereferenceable(32) %1) #4 {
  %3 = load ptr, ptr %1, align 8, !tbaa !35
  br label %4

4:                                                ; preds = %4, %2
  %.0.i.i = phi ptr [ %3, %2 ], [ %6, %4 ]
  %5 = load i8, ptr %.0.i.i, align 1, !tbaa !14, !noalias !74
  %.not.i.i = icmp eq i8 %5, 0
  %6 = getelementptr inbounds nuw i8, ptr %.0.i.i, i64 1
  br i1 %.not.i.i, label %_ZN5boost6nowide5widenIcvEENSt7__cxx1112basic_stringIwSt11char_traitsIwESaIwEEEPKT_.exit, label %4, !llvm.loop !72

_ZN5boost6nowide5widenIcvEENSt7__cxx1112basic_stringIwSt11char_traitsIwESaIwEEEPKT_.exit: ; preds = %4
  %7 = ptrtoint ptr %.0.i.i to i64
  %8 = ptrtoint ptr %3 to i64
  %9 = sub i64 %7, %8
  %10 = getelementptr inbounds nuw i8, ptr %3, i64 %9
  tail call void @_ZN5boost6nowide3utf14convert_stringIwcEENSt7__cxx1112basic_stringIT_St11char_traitsIS5_ESaIS5_EEEPKT0_SC_(ptr dead_on_unwind writable sret(%"class.std::__cxx11::basic_string") align 8 %0, ptr noundef %3, ptr noundef %10)
  ret void
}